; Function Attrs: mustprogress nounwind uwtable
define internal fastcc noundef ptr @_ZL14get_unload_seth(i8 noundef zeroext %0) unnamed_addr #0 {
  %2 = icmp eq i8 %0, 0
  br i1 %2, label %3, label %14

3:                                                ; preds = %1
  %4 = load ptr, ptr @_ZL19_unload_set_epoch_0, align 8
  %5 = icmp eq ptr %4, null
  br i1 %5, label %6, label %_ZL18unload_set_epoch_0v.exit

6:                                                ; preds = %3
  %7 = tail call noundef ptr @_ZN6AnyObjnwEm8MEMFLAGS(i64 noundef 24, i8 noundef zeroext 16) #8
  %8 = icmp eq ptr %7, null
  br i1 %8, label %_ZL21c_heap_allocate_arrayImEP13GrowableArrayIT_Ei.exit.i, label %9

9:                                                ; preds = %6
  %10 = tail call noundef ptr @_ZN27GrowableArrayCHeapAllocator8allocateEii8MEMFLAGS(i32 noundef 64, i32 noundef 8, i8 noundef zeroext 16) #8
  store i32 0, ptr %7, align 4
  %11 = getelementptr inbounds i8, ptr %7, i64 4
  store i32 64, ptr %11, align 4
  %12 = getelementptr inbounds i8, ptr %7, i64 8
  store ptr %10, ptr %12, align 8
  tail call void @llvm.memset.p0.i64(ptr noundef nonnull align 8 dereferenceable(512) %10, i8 0, i64 512, i1 false)
  %13 = getelementptr inbounds i8, ptr %7, i64 16
  store i64 33, ptr %13, align 8
  br label %_ZL21c_heap_allocate_arrayImEP13GrowableArrayIT_Ei.exit.i

_ZL21c_heap_allocate_arrayImEP13GrowableArrayIT_Ei.exit.i: ; preds = %9, %6
  store ptr %7, ptr @_ZL19_unload_set_epoch_0, align 8
  br label %_ZL18unload_set_epoch_0v.exit

14:                                               ; preds = %1
  %15 = load ptr, ptr @_ZL19_unload_set_epoch_1, align 8
  %16 = icmp eq ptr %15, null
  br i1 %16, label %17, label %_ZL18unload_set_epoch_0v.exit

17:                                               ; preds = %14
  %18 = tail call noundef ptr @_ZN6AnyObjnwEm8MEMFLAGS(i64 noundef 24, i8 noundef zeroext 16) #8
  %19 = icmp eq ptr %18, null
  br i1 %19, label %_ZL21c_heap_allocate_arrayImEP13GrowableArrayIT_Ei.exit.i1, label %20

20:                                               ; preds = %17
  %21 = tail call noundef ptr @_ZN27GrowableArrayCHeapAllocator8allocateEii8MEMFLAGS(i32 noundef 64, i32 noundef 8, i8 noundef zeroext 16) #8
  store i32 0, ptr %18, align 4
  %22 = getelementptr inbounds i8, ptr %18, i64 4
  store i32 64, ptr %22, align 4
  %23 = getelementptr inbounds i8, ptr %18, i64 8
  store ptr %21, ptr %23, align 8
  tail call void @llvm.memset.p0.i64(ptr noundef nonnull align 8 dereferenceable(512) %21, i8 0, i64 512, i1 false)
  %24 = getelementptr inbounds i8, ptr %18, i64 16
  store i64 33, ptr %24, align 8
  br label %_ZL21c_heap_allocate_arrayImEP13GrowableArrayIT_Ei.exit.i1

_ZL21c_heap_allocate_arrayImEP13GrowableArrayIT_Ei.exit.i1: ; preds = %20, %17
  store ptr %18, ptr @_ZL19_unload_set_epoch_1, align 8
  br label %_ZL18unload_set_epoch_0v.exit

_ZL18unload_set_epoch_0v.exit:                    ; preds = %_ZL21c_heap_allocate_arrayImEP13GrowableArrayIT_Ei.exit.i1, %14, %_ZL21c_heap_allocate_arrayImEP13GrowableArrayIT_Ei.exit.i, %3
  %25 = phi ptr [ %7, %_ZL21c_heap_allocate_arrayImEP13GrowableArrayIT_Ei.exit.i ], [ %4, %3 ], [ %18, %_ZL21c_heap_allocate_arrayImEP13GrowableArrayIT_Ei.exit.i1 ], [ %15, %14 ]
  ret ptr %25
}